(dp0
S'k1s'
p1
I1
sS'k3u'
p2
I9
sS'k4u'
p3
I12
sS'k1u'
p4
I2
sS'k7p'
p5
I16
sS'k5'
p6
I13
sS'k2s'
p7
I6
sS'k2p'
p8
I5
sS'k7pu'
p9
I17
sS'k7a'
p10
I15
sS'k2u'
p11
I7
sS'k3'
p12
I8
sS'k2'
p13
I3
sS'k1'
p14
I0
sS'k7tu'
p15
I19
sS'k7'
p16
I14
sS'k7t'
p17
I18
sS'k4a'
p18
I11
sS'k4'
p19
I10
sS'k7u'
p20
I20
sS'k2g'
p21
I4
s.